target datalayout = "e-m:e-p270:32:32-p271:32:32-p272:64:64-i64:64-i128:128-f80:128-n8:16:32:64-S128"
target triple = "x86_64-pc-linux-gnu"

%struct.zskiplist = type { ptr, ptr, i64, i32 }
%struct.redisObject = type { i32, i32, ptr }
%struct.zset = type { ptr, ptr }
%struct.zsetopsrc = type { ptr, i32, i32, double, %union.anon }
%union.anon = type { %union._iterset }
%union._iterset = type { %struct.anon.1 }
%struct.anon.1 = type { ptr, ptr, ptr }
%struct.anon.0 = type { ptr, i32 }
%struct.anon.2 = type { ptr, ptr }
%struct.anon.3 = type { ptr, ptr, ptr }
%struct.anon.4 = type { ptr, ptr }

@.str.1 = private unnamed_addr constant [9 x i8] c"t_zset.c\00", align 1
@.str.9 = private unnamed_addr constant [28 x i8] c"Unknown sorted set encoding\00", align 1
@.str.37 = private unnamed_addr constant [21 x i8] c"Unknown set encoding\00", align 1
@.str.38 = private unnamed_addr constant [20 x i8] c"it->zl.sptr != NULL\00", align 1
@.str.39 = private unnamed_addr constant [17 x i8] c"Unsupported type\00", align 1

; Function Attrs: nounwind uwtable
define dso_local void @zuiInitIterator(ptr noundef %0) #0 {
  %2 = alloca ptr, align 8
  %3 = alloca ptr, align 8
  %4 = alloca ptr, align 8
  store ptr %0, ptr %2, align 8, !tbaa !45
  %5 = load ptr, ptr %2, align 8, !tbaa !45
  %6 = getelementptr inbounds nuw %struct.zsetopsrc, ptr %5, i32 0, i32 0
  %7 = load ptr, ptr %6, align 8, !tbaa !171
  %8 = icmp eq ptr %7, null
  br i1 %8, label %9, label %10

9:                                                ; preds = %1
  br label %164

10:                                               ; preds = %1
  %11 = load ptr, ptr %2, align 8, !tbaa !45
  %12 = getelementptr inbounds nuw %struct.zsetopsrc, ptr %11, i32 0, i32 1
  %13 = load i32, ptr %12, align 8, !tbaa !173
  %14 = icmp eq i32 %13, 2
  br i1 %14, label %15, label %82

15:                                               ; preds = %10
  call void @llvm.lifetime.start.p0(i64 8, ptr %3) #12
  %16 = load ptr, ptr %2, align 8, !tbaa !45
  %17 = getelementptr inbounds nuw %struct.zsetopsrc, ptr %16, i32 0, i32 4
  store ptr %17, ptr %3, align 8, !tbaa !174
  %18 = load ptr, ptr %2, align 8, !tbaa !45
  %19 = getelementptr inbounds nuw %struct.zsetopsrc, ptr %18, i32 0, i32 2
  %20 = load i32, ptr %19, align 4, !tbaa !176
  %21 = icmp eq i32 %20, 6
  br i1 %21, label %22, label %32

22:                                               ; preds = %15
  %23 = load ptr, ptr %2, align 8, !tbaa !45
  %24 = getelementptr inbounds nuw %struct.zsetopsrc, ptr %23, i32 0, i32 0
  %25 = load ptr, ptr %24, align 8, !tbaa !171
  %26 = getelementptr inbounds nuw %struct.redisObject, ptr %25, i32 0, i32 2
  %27 = load ptr, ptr %26, align 8, !tbaa !84
  %28 = load ptr, ptr %3, align 8, !tbaa !174
  %29 = getelementptr inbounds nuw %struct.anon.0, ptr %28, i32 0, i32 0
  store ptr %27, ptr %29, align 8, !tbaa !86
  %30 = load ptr, ptr %3, align 8, !tbaa !174
  %31 = getelementptr inbounds nuw %struct.anon.0, ptr %30, i32 0, i32 1
  store i32 0, ptr %31, align 8, !tbaa !86
  br label %81

32:                                               ; preds = %15
  %33 = load ptr, ptr %2, align 8, !tbaa !45
  %34 = getelementptr inbounds nuw %struct.zsetopsrc, ptr %33, i32 0, i32 2
  %35 = load i32, ptr %34, align 4, !tbaa !176
  %36 = icmp eq i32 %35, 2
  br i1 %36, label %37, label %59

37:                                               ; preds = %32
  %38 = load ptr, ptr %2, align 8, !tbaa !45
  %39 = getelementptr inbounds nuw %struct.zsetopsrc, ptr %38, i32 0, i32 0
  %40 = load ptr, ptr %39, align 8, !tbaa !171
  %41 = getelementptr inbounds nuw %struct.redisObject, ptr %40, i32 0, i32 2
  %42 = load ptr, ptr %41, align 8, !tbaa !84
  %43 = load ptr, ptr %3, align 8, !tbaa !174
  %44 = getelementptr inbounds nuw %struct.anon.1, ptr %43, i32 0, i32 0
  store ptr %42, ptr %44, align 8, !tbaa !86
  %45 = load ptr, ptr %2, align 8, !tbaa !45
  %46 = getelementptr inbounds nuw %struct.zsetopsrc, ptr %45, i32 0, i32 0
  %47 = load ptr, ptr %46, align 8, !tbaa !171
  %48 = getelementptr inbounds nuw %struct.redisObject, ptr %47, i32 0, i32 2
  %49 = load ptr, ptr %48, align 8, !tbaa !84
  %50 = call ptr @dictGetIterator(ptr noundef %49)
  %51 = load ptr, ptr %3, align 8, !tbaa !174
  %52 = getelementptr inbounds nuw %struct.anon.1, ptr %51, i32 0, i32 1
  store ptr %50, ptr %52, align 8, !tbaa !86
  %53 = load ptr, ptr %3, align 8, !tbaa !174
  %54 = getelementptr inbounds nuw %struct.anon.1, ptr %53, i32 0, i32 1
  %55 = load ptr, ptr %54, align 8, !tbaa !86
  %56 = call ptr @dictNext(ptr noundef %55)
  %57 = load ptr, ptr %3, align 8, !tbaa !174
  %58 = getelementptr inbounds nuw %struct.anon.1, ptr %57, i32 0, i32 2
  store ptr %56, ptr %58, align 8, !tbaa !86
  br label %80

59:                                               ; preds = %32
  %60 = load ptr, ptr %2, align 8, !tbaa !45
  %61 = getelementptr inbounds nuw %struct.zsetopsrc, ptr %60, i32 0, i32 2
  %62 = load i32, ptr %61, align 4, !tbaa !176
  %63 = icmp eq i32 %62, 11
  br i1 %63, label %64, label %78

64:                                               ; preds = %59
  %65 = load ptr, ptr %2, align 8, !tbaa !45
  %66 = getelementptr inbounds nuw %struct.zsetopsrc, ptr %65, i32 0, i32 0
  %67 = load ptr, ptr %66, align 8, !tbaa !171
  %68 = getelementptr inbounds nuw %struct.redisObject, ptr %67, i32 0, i32 2
  %69 = load ptr, ptr %68, align 8, !tbaa !84
  %70 = load ptr, ptr %3, align 8, !tbaa !174
  %71 = getelementptr inbounds nuw %struct.anon.2, ptr %70, i32 0, i32 0
  store ptr %69, ptr %71, align 8, !tbaa !86
  %72 = load ptr, ptr %3, align 8, !tbaa !174
  %73 = getelementptr inbounds nuw %struct.anon.2, ptr %72, i32 0, i32 0
  %74 = load ptr, ptr %73, align 8, !tbaa !86
  %75 = call ptr @lpFirst(ptr noundef %74)
  %76 = load ptr, ptr %3, align 8, !tbaa !174
  %77 = getelementptr inbounds nuw %struct.anon.2, ptr %76, i32 0, i32 1
  store ptr %75, ptr %77, align 8, !tbaa !86
  br label %79

78:                                               ; preds = %59
  call void (ptr, i32, ptr, ...) @_serverPanic(ptr noundef @.str.1, i32 noundef 2140, ptr noundef @.str.37)
  call void @abort() #14
  unreachable

79:                                               ; preds = %64
  br label %80

80:                                               ; preds = %79, %37
  br label %81

81:                                               ; preds = %80, %22
  call void @llvm.lifetime.end.p0(i64 8, ptr %3) #12
  br label %164

82:                                               ; preds = %10
  %83 = load ptr, ptr %2, align 8, !tbaa !45
  %84 = getelementptr inbounds nuw %struct.zsetopsrc, ptr %83, i32 0, i32 1
  %85 = load i32, ptr %84, align 8, !tbaa !173
  %86 = icmp eq i32 %85, 3
  br i1 %86, label %87, label %162

87:                                               ; preds = %82
  call void @llvm.lifetime.start.p0(i64 8, ptr %4) #12
  %88 = load ptr, ptr %2, align 8, !tbaa !45
  %89 = getelementptr inbounds nuw %struct.zsetopsrc, ptr %88, i32 0, i32 4
  store ptr %89, ptr %4, align 8, !tbaa !177
  %90 = load ptr, ptr %2, align 8, !tbaa !45
  %91 = getelementptr inbounds nuw %struct.zsetopsrc, ptr %90, i32 0, i32 2
  %92 = load i32, ptr %91, align 4, !tbaa !176
  %93 = icmp eq i32 %92, 11
  br i1 %93, label %94, label %137

94:                                               ; preds = %87
  %95 = load ptr, ptr %2, align 8, !tbaa !45
  %96 = getelementptr inbounds nuw %struct.zsetopsrc, ptr %95, i32 0, i32 0
  %97 = load ptr, ptr %96, align 8, !tbaa !171
  %98 = getelementptr inbounds nuw %struct.redisObject, ptr %97, i32 0, i32 2
  %99 = load ptr, ptr %98, align 8, !tbaa !84
  %100 = load ptr, ptr %4, align 8, !tbaa !177
  %101 = getelementptr inbounds nuw %struct.anon.3, ptr %100, i32 0, i32 0
  store ptr %99, ptr %101, align 8, !tbaa !86
  %102 = load ptr, ptr %4, align 8, !tbaa !177
  %103 = getelementptr inbounds nuw %struct.anon.3, ptr %102, i32 0, i32 0
  %104 = load ptr, ptr %103, align 8, !tbaa !86
  %105 = call ptr @lpSeek(ptr noundef %104, i64 noundef -2)
  %106 = load ptr, ptr %4, align 8, !tbaa !177
  %107 = getelementptr inbounds nuw %struct.anon.3, ptr %106, i32 0, i32 1
  store ptr %105, ptr %107, align 8, !tbaa !86
  %108 = load ptr, ptr %4, align 8, !tbaa !177
  %109 = getelementptr inbounds nuw %struct.anon.3, ptr %108, i32 0, i32 1
  %110 = load ptr, ptr %109, align 8, !tbaa !86
  %111 = icmp ne ptr %110, null
  br i1 %111, label %112, label %136

112:                                              ; preds = %94
  %113 = load ptr, ptr %4, align 8, !tbaa !177
  %114 = getelementptr inbounds nuw %struct.anon.3, ptr %113, i32 0, i32 0
  %115 = load ptr, ptr %114, align 8, !tbaa !86
  %116 = load ptr, ptr %4, align 8, !tbaa !177
  %117 = getelementptr inbounds nuw %struct.anon.3, ptr %116, i32 0, i32 1
  %118 = load ptr, ptr %117, align 8, !tbaa !86
  %119 = call ptr @lpNext(ptr noundef %115, ptr noundef %118)
  %120 = load ptr, ptr %4, align 8, !tbaa !177
  %121 = getelementptr inbounds nuw %struct.anon.3, ptr %120, i32 0, i32 2
  store ptr %119, ptr %121, align 8, !tbaa !86
  %122 = load ptr, ptr %4, align 8, !tbaa !177
  %123 = getelementptr inbounds nuw %struct.anon.3, ptr %122, i32 0, i32 2
  %124 = load ptr, ptr %123, align 8, !tbaa !86
  %125 = icmp ne ptr %124, null
  %126 = xor i1 %125, true
  %127 = xor i1 %126, true
  %128 = zext i1 %127 to i32
  %129 = sext i32 %128 to i64
  %130 = call i64 @llvm.expect.i64(i64 %129, i64 1)
  %131 = icmp ne i64 %130, 0
  br i1 %131, label %132, label %133

132:                                              ; preds = %112
  br label %135

133:                                              ; preds = %112
  call void @_serverAssert(ptr noundef @.str.38, ptr noundef @.str.1, i32 noundef 2152)
  call void @abort() #14
  unreachable

134:                                              ; No predecessors!
  br label %135

135:                                              ; preds = %134, %132
  br label %136

136:                                              ; preds = %135, %94
  br label %161

137:                                              ; preds = %87
  %138 = load ptr, ptr %2, align 8, !tbaa !45
  %139 = getelementptr inbounds nuw %struct.zsetopsrc, ptr %138, i32 0, i32 2
  %140 = load i32, ptr %139, align 4, !tbaa !176
  %141 = icmp eq i32 %140, 7
  br i1 %141, label %142, label %159

142:                                              ; preds = %137
  %143 = load ptr, ptr %2, align 8, !tbaa !45
  %144 = getelementptr inbounds nuw %struct.zsetopsrc, ptr %143, i32 0, i32 0
  %145 = load ptr, ptr %144, align 8, !tbaa !171
  %146 = getelementptr inbounds nuw %struct.redisObject, ptr %145, i32 0, i32 2
  %147 = load ptr, ptr %146, align 8, !tbaa !84
  %148 = load ptr, ptr %4, align 8, !tbaa !177
  %149 = getelementptr inbounds nuw %struct.anon.4, ptr %148, i32 0, i32 0
  store ptr %147, ptr %149, align 8, !tbaa !86
  %150 = load ptr, ptr %4, align 8, !tbaa !177
  %151 = getelementptr inbounds nuw %struct.anon.4, ptr %150, i32 0, i32 0
  %152 = load ptr, ptr %151, align 8, !tbaa !86
  %153 = getelementptr inbounds nuw %struct.zset, ptr %152, i32 0, i32 1
  %154 = load ptr, ptr %153, align 8, !tbaa !112
  %155 = getelementptr inbounds nuw %struct.zskiplist, ptr %154, i32 0, i32 1
  %156 = load ptr, ptr %155, align 8, !tbaa !28
  %157 = load ptr, ptr %4, align 8, !tbaa !177
  %158 = getelementptr inbounds nuw %struct.anon.4, ptr %157, i32 0, i32 1
  store ptr %156, ptr %158, align 8, !tbaa !86
  br label %160

159:                                              ; preds = %137
  call void (ptr, i32, ptr, ...) @_serverPanic(ptr noundef @.str.1, i32 noundef 2158, ptr noundef @.str.9)
  call void @abort() #14
  unreachable

160:                                              ; preds = %142
  br label %161

161:                                              ; preds = %160, %136
  call void @llvm.lifetime.end.p0(i64 8, ptr %4) #12
  br label %163

162:                                              ; preds = %82
  call void (ptr, i32, ptr, ...) @_serverPanic(ptr noundef @.str.1, i32 noundef 2161, ptr noundef @.str.39)
  call void @abort() #14
  unreachable

163:                                              ; preds = %161
  br label %164

164:                                              ; preds = %9, %163, %81
  ret void
}