; Function Attrs: nounwind uwtable
define dso_local void @zuiInitIterator(ptr noundef captures(none) %0) local_unnamed_addr #0 {
  %2 = load ptr, ptr %0, align 8, !tbaa !157
  %3 = icmp eq ptr %2, null
  br i1 %3, label %52, label %4

4:                                                ; preds = %1
  %5 = getelementptr inbounds nuw i8, ptr %0, i64 8
  %6 = load i32, ptr %5, align 8, !tbaa !159
  switch i32 %6, label %51 [
    i32 2, label %7
    i32 3, label %28
  ]

7:                                                ; preds = %4
  %8 = getelementptr inbounds nuw i8, ptr %0, i64 24
  %9 = getelementptr inbounds nuw i8, ptr %0, i64 12
  %10 = load i32, ptr %9, align 4, !tbaa !160
  switch i32 %10, label %27 [
    i32 6, label %11
    i32 2, label %15
    i32 11, label %22
  ]

11:                                               ; preds = %7
  %12 = getelementptr inbounds nuw i8, ptr %2, i64 8
  %13 = load ptr, ptr %12, align 8, !tbaa !75
  store ptr %13, ptr %8, align 8, !tbaa !77
  %14 = getelementptr inbounds nuw i8, ptr %0, i64 32
  store i32 0, ptr %14, align 8, !tbaa !77
  br label %52

15:                                               ; preds = %7
  %16 = getelementptr inbounds nuw i8, ptr %2, i64 8
  %17 = load ptr, ptr %16, align 8, !tbaa !75
  store ptr %17, ptr %8, align 8, !tbaa !77
  %18 = tail call ptr @dictGetIterator(ptr noundef %17) #18
  %19 = getelementptr inbounds nuw i8, ptr %0, i64 32
  store ptr %18, ptr %19, align 8, !tbaa !77
  %20 = tail call ptr @dictNext(ptr noundef %18) #18
  %21 = getelementptr inbounds nuw i8, ptr %0, i64 40
  store ptr %20, ptr %21, align 8, !tbaa !77
  br label %52

22:                                               ; preds = %7
  %23 = getelementptr inbounds nuw i8, ptr %2, i64 8
  %24 = load ptr, ptr %23, align 8, !tbaa !75
  store ptr %24, ptr %8, align 8, !tbaa !77
  %25 = tail call ptr @lpFirst(ptr noundef %24) #18
  %26 = getelementptr inbounds nuw i8, ptr %0, i64 32
  store ptr %25, ptr %26, align 8, !tbaa !77
  br label %52

27:                                               ; preds = %7
  tail call void (ptr, i32, ptr, ...) @_serverPanic(ptr noundef nonnull @.str.1, i32 noundef 2140, ptr noundef nonnull @.str.37) #18
  tail call void @abort() #19
  unreachable

28:                                               ; preds = %4
  %29 = getelementptr inbounds nuw i8, ptr %0, i64 24
  %30 = getelementptr inbounds nuw i8, ptr %0, i64 12
  %31 = load i32, ptr %30, align 4, !tbaa !160
  switch i32 %31, label %50 [
    i32 11, label %32
    i32 7, label %42
  ]

32:                                               ; preds = %28
  %33 = getelementptr inbounds nuw i8, ptr %2, i64 8
  %34 = load ptr, ptr %33, align 8, !tbaa !75
  store ptr %34, ptr %29, align 8, !tbaa !77
  %35 = tail call ptr @lpSeek(ptr noundef %34, i64 noundef -2) #18
  %36 = getelementptr inbounds nuw i8, ptr %0, i64 32
  store ptr %35, ptr %36, align 8, !tbaa !77
  %.not = icmp eq ptr %35, null
  br i1 %.not, label %52, label %37

37:                                               ; preds = %32
  %38 = load ptr, ptr %29, align 8, !tbaa !77
  %39 = tail call ptr @lpNext(ptr noundef %38, ptr noundef nonnull %35) #18
  %40 = getelementptr inbounds nuw i8, ptr %0, i64 40
  store ptr %39, ptr %40, align 8, !tbaa !77
  %.not40 = icmp eq ptr %39, null
  br i1 %.not40, label %41, label %52, !prof !40

41:                                               ; preds = %37
  tail call void @_serverAssert(ptr noundef nonnull @.str.38, ptr noundef nonnull @.str.1, i32 noundef 2152) #18
  tail call void @abort() #19
  unreachable

42:                                               ; preds = %28
  %43 = getelementptr inbounds nuw i8, ptr %2, i64 8
  %44 = load ptr, ptr %43, align 8, !tbaa !75
  store ptr %44, ptr %29, align 8, !tbaa !77
  %45 = getelementptr inbounds nuw i8, ptr %44, i64 8
  %46 = load ptr, ptr %45, align 8, !tbaa !97
  %47 = getelementptr inbounds nuw i8, ptr %46, i64 8
  %48 = load ptr, ptr %47, align 8, !tbaa !19
  %49 = getelementptr inbounds nuw i8, ptr %0, i64 32
  store ptr %48, ptr %49, align 8, !tbaa !77
  br label %52

50:                                               ; preds = %28
  tail call void (ptr, i32, ptr, ...) @_serverPanic(ptr noundef nonnull @.str.1, i32 noundef 2158, ptr noundef nonnull @.str.9) #18
  tail call void @abort() #19
  unreachable

51:                                               ; preds = %4
  tail call void (ptr, i32, ptr, ...) @_serverPanic(ptr noundef nonnull @.str.1, i32 noundef 2161, ptr noundef nonnull @.str.39) #18
  tail call void @abort() #19
  unreachable

52:                                               ; preds = %42, %37, %32, %11, %22, %15, %1
  ret void
}